; Function Attrs: mustprogress nofree norecurse nosync nounwind memory(read, argmem: readwrite, inaccessiblemem: none) uwtable
define void @_ZN10open_spiel8deep_sea12DeepSeaState10UndoActionEil(ptr nocapture noundef nonnull align 8 dereferenceable(160) %0, i32 %1, i64 %2) unnamed_addr #11 align 2 personality ptr @__gxx_personality_v0 {
  %4 = getelementptr inbounds nuw i8, ptr %0, i64 120
  %5 = getelementptr inbounds i8, ptr %0, i64 144
  %6 = load i32, ptr %5, align 8
  %7 = add i32 %6, -1
  store i32 %7, ptr %5, align 8
  %8 = icmp eq i32 %6, 0
  %9 = getelementptr inbounds i8, ptr %0, i64 136
  br i1 %8, label %10, label %._ZNSt6vectorIbSaIbEE8pop_backEv.exit_crit_edge

._ZNSt6vectorIbSaIbEE8pop_backEv.exit_crit_edge:  ; preds = %3
  %.sroa.0.0.copyload.i.pre = load ptr, ptr %9, align 8
  br label %_ZNSt6vectorIbSaIbEE8pop_backEv.exit

10:                                               ; preds = %3
  store i32 63, ptr %5, align 8
  %11 = load ptr, ptr %9, align 8
  %12 = getelementptr inbounds i8, ptr %11, i64 -8
  store ptr %12, ptr %9, align 8
  br label %_ZNSt6vectorIbSaIbEE8pop_backEv.exit

_ZNSt6vectorIbSaIbEE8pop_backEv.exit:             ; preds = %._ZNSt6vectorIbSaIbEE8pop_backEv.exit_crit_edge, %10
  %.sroa.2.0.copyload.i = phi i32 [ %7, %._ZNSt6vectorIbSaIbEE8pop_backEv.exit_crit_edge ], [ 63, %10 ]
  %.sroa.0.0.copyload.i = phi ptr [ %.sroa.0.0.copyload.i.pre, %._ZNSt6vectorIbSaIbEE8pop_backEv.exit_crit_edge ], [ %12, %10 ]
  %13 = getelementptr inbounds i8, ptr %0, i64 40
  %14 = load ptr, ptr %13, align 8
  %15 = getelementptr inbounds i8, ptr %14, i64 -16
  store ptr %15, ptr %13, align 8
  %16 = getelementptr inbounds nuw i8, ptr %0, i64 56
  %17 = load i32, ptr %16, align 8
  %18 = add nsw i32 %17, -1
  store i32 %18, ptr %16, align 8
  %19 = getelementptr inbounds nuw i8, ptr %0, i64 112
  store i32 0, ptr %19, align 8
  %20 = getelementptr inbounds nuw i8, ptr %0, i64 116
  store i32 0, ptr %20, align 4
  %21 = load ptr, ptr %4, align 8
  %22 = icmp ne ptr %21, %.sroa.0.0.copyload.i
  %23 = icmp ne i32 %.sroa.2.0.copyload.i, 0
  %.not3.i20 = or i1 %22, %23
  br i1 %.not3.i20, label %.lr.ph, label %._crit_edge

.lr.ph:                                           ; preds = %_ZNSt6vectorIbSaIbEE8pop_backEv.exit, %_ZNSt13_Bit_iteratorppEv.exit
  %.sroa.5.022 = phi i32 [ %spec.select18, %_ZNSt13_Bit_iteratorppEv.exit ], [ 0, %_ZNSt6vectorIbSaIbEE8pop_backEv.exit ]
  %.sroa.013.021 = phi ptr [ %spec.select, %_ZNSt13_Bit_iteratorppEv.exit ], [ %21, %_ZNSt6vectorIbSaIbEE8pop_backEv.exit ]
  %24 = phi i32 [ %33, %_ZNSt13_Bit_iteratorppEv.exit ], [ 0, %_ZNSt6vectorIbSaIbEE8pop_backEv.exit ]
  %25 = phi i32 [ %34, %_ZNSt13_Bit_iteratorppEv.exit ], [ 0, %_ZNSt6vectorIbSaIbEE8pop_backEv.exit ]
  %26 = zext nneg i32 %.sroa.5.022 to i64
  %27 = shl nuw i64 1, %26
  %28 = load i64, ptr %.sroa.013.021, align 8
  %29 = and i64 %28, %27
  %.not = icmp eq i64 %29, 0
  br i1 %.not, label %30, label %_ZNSt13_Bit_iteratorppEv.exit.sink.split

30:                                               ; preds = %.lr.ph
  %31 = icmp sgt i32 %24, 0
  br i1 %31, label %_ZNSt13_Bit_iteratorppEv.exit.sink.split, label %_ZNSt13_Bit_iteratorppEv.exit

_ZNSt13_Bit_iteratorppEv.exit.sink.split:         ; preds = %30, %.lr.ph
  %.sink25 = phi i32 [ 1, %.lr.ph ], [ -1, %30 ]
  %32 = add nsw i32 %24, %.sink25
  store i32 %32, ptr %20, align 4
  br label %_ZNSt13_Bit_iteratorppEv.exit

_ZNSt13_Bit_iteratorppEv.exit:                    ; preds = %_ZNSt13_Bit_iteratorppEv.exit.sink.split, %30
  %33 = phi i32 [ %24, %30 ], [ %32, %_ZNSt13_Bit_iteratorppEv.exit.sink.split ]
  %34 = add nuw nsw i32 %25, 1
  store i32 %34, ptr %19, align 8
  %35 = add i32 %.sroa.5.022, 1
  %36 = icmp eq i32 %.sroa.5.022, 63
  %spec.select.idx = select i1 %36, i64 8, i64 0
  %spec.select = getelementptr inbounds i8, ptr %.sroa.013.021, i64 %spec.select.idx
  %spec.select18 = select i1 %36, i32 0, i32 %35
  %37 = icmp ne ptr %spec.select, %.sroa.0.0.copyload.i
  %38 = icmp ne i32 %spec.select18, %.sroa.2.0.copyload.i
  %.not3.i = or i1 %37, %38
  br i1 %.not3.i, label %.lr.ph, label %._crit_edge

._crit_edge:                                      ; preds = %_ZNSt13_Bit_iteratorppEv.exit, %_ZNSt6vectorIbSaIbEE8pop_backEv.exit
  ret void
}